target datalayout = "e-m:e-p270:32:32-p271:32:32-p272:64:64-i64:64-i128:128-f80:128-n8:16:32:64-S128"
target triple = "x86_64-pc-linux-gnu"

@.str.121 = private unnamed_addr constant [9 x i8] c"Identity\00", align 1
@.str.122 = private unnamed_addr constant [5 x i8] c"/CFM\00", align 1
@.str.123 = private unnamed_addr constant [30 x i8] c"parse_enc_method: %s CFM: %s\0A\00", align 1
@.str.124 = private unnamed_addr constant [3 x i8] c"V2\00", align 1
@.str.125 = private unnamed_addr constant [6 x i8] c"AESV2\00", align 1
@.str.126 = private unnamed_addr constant [6 x i8] c"AESV3\00", align 1
@.str.127 = private unnamed_addr constant [5 x i8] c"None\00", align 1

; Function Attrs: nounwind uwtable
define i32 @parse_enc_method(ptr noundef %0, i32 noundef %1, ptr noundef %2, i32 noundef %3) #0 {
  %5 = alloca i32, align 4
  %6 = alloca ptr, align 8
  %7 = alloca i32, align 4
  %8 = alloca ptr, align 8
  %9 = alloca i32, align 4
  %10 = alloca ptr, align 8
  %11 = alloca ptr, align 8
  %12 = alloca i32, align 4
  store ptr %0, ptr %6, align 8
  store i32 %1, ptr %7, align 4
  store ptr %2, ptr %8, align 8
  store i32 %3, ptr %9, align 4
  store ptr null, ptr %11, align 8
  store i32 0, ptr %12, align 4
  %13 = load ptr, ptr %8, align 8
  %14 = icmp ne ptr %13, null
  br i1 %14, label %17, label %15

15:                                               ; preds = %4
  %16 = load i32, ptr %9, align 4
  store i32 %16, ptr %5, align 4
  br label %65

17:                                               ; preds = %4
  %18 = load ptr, ptr %8, align 8
  %19 = call i32 @strcmp(ptr noundef %18, ptr noundef @.str.121) #13
  %20 = icmp ne i32 %19, 0
  br i1 %20, label %22, label %21

21:                                               ; preds = %17
  store i32 2, ptr %5, align 4
  br label %65

22:                                               ; preds = %17
  %23 = load ptr, ptr %6, align 8
  %24 = load ptr, ptr %8, align 8
  %25 = call ptr @pdf_getdict(ptr noundef %23, ptr noundef %7, ptr noundef %24)
  store ptr %25, ptr %10, align 8
  %26 = load ptr, ptr %10, align 8
  %27 = icmp ne ptr %26, null
  br i1 %27, label %30, label %28

28:                                               ; preds = %22
  %29 = load i32, ptr %9, align 4
  store i32 %29, ptr %5, align 4
  br label %65

30:                                               ; preds = %22
  %31 = load ptr, ptr %10, align 8
  %32 = load i32, ptr %7, align 4
  %33 = call ptr @pdf_readval(ptr noundef %31, i32 noundef %32, ptr noundef @.str.122)
  store ptr %33, ptr %11, align 8
  %34 = load ptr, ptr %11, align 8
  %35 = icmp ne ptr %34, null
  br i1 %35, label %36, label %63

36:                                               ; preds = %30
  %37 = load ptr, ptr %8, align 8
  %38 = load ptr, ptr %11, align 8
  call void (ptr, ...) @cli_dbgmsg(ptr noundef @.str.123, ptr noundef %37, ptr noundef %38)
  %39 = load ptr, ptr %11, align 8
  %40 = call i32 @strncmp(ptr noundef %39, ptr noundef @.str.124, i64 noundef 2) #13
  %41 = icmp ne i32 %40, 0
  br i1 %41, label %43, label %42

42:                                               ; preds = %36
  store i32 3, ptr %12, align 4
  br label %61

43:                                               ; preds = %36
  %44 = load ptr, ptr %11, align 8
  %45 = call i32 @strncmp(ptr noundef %44, ptr noundef @.str.125, i64 noundef 5) #13
  %46 = icmp ne i32 %45, 0
  br i1 %46, label %48, label %47

47:                                               ; preds = %43
  store i32 4, ptr %12, align 4
  br label %60

48:                                               ; preds = %43
  %49 = load ptr, ptr %11, align 8
  %50 = call i32 @strncmp(ptr noundef %49, ptr noundef @.str.126, i64 noundef 5) #13
  %51 = icmp ne i32 %50, 0
  br i1 %51, label %53, label %52

52:                                               ; preds = %48
  store i32 5, ptr %12, align 4
  br label %59

53:                                               ; preds = %48
  %54 = load ptr, ptr %11, align 8
  %55 = call i32 @strncmp(ptr noundef %54, ptr noundef @.str.127, i64 noundef 4) #13
  %56 = icmp ne i32 %55, 0
  br i1 %56, label %58, label %57

57:                                               ; preds = %53
  store i32 1, ptr %12, align 4
  br label %58

58:                                               ; preds = %57, %53
  br label %59

59:                                               ; preds = %58, %52
  br label %60

60:                                               ; preds = %59, %47
  br label %61

61:                                               ; preds = %60, %42
  %62 = load ptr, ptr %11, align 8
  call void @free(ptr noundef %62) #11
  br label %63

63:                                               ; preds = %61, %30
  %64 = load i32, ptr %12, align 4
  store i32 %64, ptr %5, align 4
  br label %65

65:                                               ; preds = %63, %28, %21, %15
  %66 = load i32, ptr %5, align 4
  ret i32 %66
}