; Function Attrs: nounwind uwtable
define i32 @parse_enc_method(ptr noundef %0, i32 noundef %1, ptr noundef %2, i32 noundef %3) local_unnamed_addr #0 {
  %5 = alloca i32, align 4
  store i32 %1, ptr %5, align 4
  %.not = icmp eq ptr %2, null
  br i1 %.not, label %22, label %6

6:                                                ; preds = %4
  %7 = tail call i32 @strcmp(ptr noundef nonnull dereferenceable(1) %2, ptr noundef nonnull dereferenceable(9) @.str.121) #26
  %.not21 = icmp eq i32 %7, 0
  br i1 %.not21, label %22, label %8

8:                                                ; preds = %6
  %9 = call fastcc ptr @pdf_getdict(ptr noundef %0, ptr noundef nonnull %5, ptr noundef nonnull %2)
  %.not22 = icmp eq ptr %9, null
  br i1 %.not22, label %22, label %10

10:                                               ; preds = %8
  %11 = load i32, ptr %5, align 4
  %12 = tail call fastcc ptr @pdf_readval(ptr noundef nonnull %9, i32 noundef %11, ptr noundef nonnull @.str.122)
  %.not23 = icmp eq ptr %12, null
  br i1 %.not23, label %22, label %13

13:                                               ; preds = %10
  tail call void (ptr, ...) @cli_dbgmsg(ptr noundef nonnull @.str.123, ptr noundef nonnull %2, ptr noundef nonnull %12) #22
  %14 = tail call i32 @strncmp(ptr noundef nonnull dereferenceable(1) %12, ptr noundef nonnull dereferenceable(3) @.str.124, i64 noundef 2) #26
  %.not24 = icmp eq i32 %14, 0
  br i1 %.not24, label %21, label %15

15:                                               ; preds = %13
  %16 = tail call i32 @strncmp(ptr noundef nonnull dereferenceable(1) %12, ptr noundef nonnull dereferenceable(6) @.str.125, i64 noundef 5) #26
  %.not25 = icmp eq i32 %16, 0
  br i1 %.not25, label %21, label %17

17:                                               ; preds = %15
  %18 = tail call i32 @strncmp(ptr noundef nonnull dereferenceable(1) %12, ptr noundef nonnull dereferenceable(6) @.str.126, i64 noundef 5) #26
  %.not26 = icmp eq i32 %18, 0
  br i1 %.not26, label %21, label %19

19:                                               ; preds = %17
  %20 = tail call i32 @strncmp(ptr noundef nonnull dereferenceable(1) %12, ptr noundef nonnull dereferenceable(5) @.str.127, i64 noundef 4) #26
  %.not27 = icmp eq i32 %20, 0
  %spec.select = zext i1 %.not27 to i32
  br label %21

21:                                               ; preds = %19, %17, %15, %13
  %.0 = phi i32 [ 3, %13 ], [ 4, %15 ], [ 5, %17 ], [ %spec.select, %19 ]
  tail call void @free(ptr noundef nonnull %12) #22
  br label %22

22:                                               ; preds = %10, %21, %8, %6, %4
  %.017 = phi i32 [ %3, %4 ], [ 2, %6 ], [ %3, %8 ], [ %.0, %21 ], [ 0, %10 ]
  ret i32 %.017
}